; ModuleID = '21/1569.c'
source_filename = "21/1569.c"
target datalayout = "e-m:e-p270:32:32-p271:32:32-p272:64:64-i64:64-f80:128-n8:16:32:64-S128"
target triple = "x86_64-pc-linux-gnu"

@.str = private unnamed_addr constant [4 x i8] c"%d\0A\00", align 1
@.str.1 = private unnamed_addr constant [3 x i8] c"%d\00", align 1
@.str.2 = private unnamed_addr constant [4 x i8] c"%d,\00", align 1

; Function Attrs: noinline nounwind uwtable
define dso_local i32 @main() #0 {
  %1 = alloca i32, align 4
  %2 = alloca i32, align 4
  %3 = alloca i32, align 4
  %4 = alloca [300 x i32], align 16
  %5 = alloca [300 x i32], align 16
  %6 = alloca i32, align 4
  %7 = alloca float, align 4
  %8 = alloca [300 x float], align 16
  %9 = alloca float, align 4
  store i32 0, i32* %1, align 4
  %10 = call i32 (i8*, ...) @__isoc99_scanf(i8* getelementptr inbounds ([4 x i8], [4 x i8]* @.str, i64 0, i64 0), i32* %2)
  store i32 0, i32* %3, align 4
  store float 0.000000e+00, float* %7, align 4
  br label %11

11:                                               ; preds = %27, %0
  %12 = load i32, i32* %3, align 4
  %13 = load i32, i32* %2, align 4
  %14 = icmp slt i32 %12, %13
  br i1 %14, label %15, label %30

15:                                               ; preds = %11
  %16 = load i32, i32* %3, align 4
  %17 = sext i32 %16 to i64
  %18 = getelementptr inbounds [300 x i32], [300 x i32]* %4, i64 0, i64 %17
  %19 = call i32 (i8*, ...) @__isoc99_scanf(i8* getelementptr inbounds ([3 x i8], [3 x i8]* @.str.1, i64 0, i64 0), i32* %18)
  %20 = load float, float* %7, align 4
  %21 = load i32, i32* %3, align 4
  %22 = sext i32 %21 to i64
  %23 = getelementptr inbounds [300 x i32], [300 x i32]* %4, i64 0, i64 %22
  %24 = load i32, i32* %23, align 4
  %25 = sitofp i32 %24 to float
  %26 = fadd float %20, %25
  store float %26, float* %7, align 4
  br label %27

27:                                               ; preds = %15
  %28 = load i32, i32* %3, align 4
  %29 = add nsw i32 %28, 1
  store i32 %29, i32* %3, align 4
  br label %11

30:                                               ; preds = %11
  %31 = load float, float* %7, align 4
  %32 = load i32, i32* %2, align 4
  %33 = sitofp i32 %32 to float
  %34 = fdiv float %31, %33
  store float %34, float* %7, align 4
  store i32 0, i32* %3, align 4
  store float 0.000000e+00, float* %9, align 4
  br label %35

35:                                               ; preds = %88, %30
  %36 = load i32, i32* %3, align 4
  %37 = load i32, i32* %2, align 4
  %38 = icmp slt i32 %36, %37
  br i1 %38, label %39, label %91

39:                                               ; preds = %35
  %40 = load float, float* %7, align 4
  %41 = load i32, i32* %3, align 4
  %42 = sext i32 %41 to i64
  %43 = getelementptr inbounds [300 x i32], [300 x i32]* %4, i64 0, i64 %42
  %44 = load i32, i32* %43, align 4
  %45 = sitofp i32 %44 to float
  %46 = fsub float %40, %45
  %47 = load i32, i32* %3, align 4
  %48 = sext i32 %47 to i64
  %49 = getelementptr inbounds [300 x float], [300 x float]* %8, i64 0, i64 %48
  store float %46, float* %49, align 4
  %50 = load float, float* %9, align 4
  %51 = fcmp olt float %50, 0.000000e+00
  br i1 %51, label %52, label %55

52:                                               ; preds = %39
  %53 = load float, float* %9, align 4
  %54 = fneg float %53
  store float %54, float* %9, align 4
  br label %55

55:                                               ; preds = %52, %39
  %56 = load i32, i32* %3, align 4
  %57 = sext i32 %56 to i64
  %58 = getelementptr inbounds [300 x float], [300 x float]* %8, i64 0, i64 %57
  %59 = load float, float* %58, align 4
  %60 = fcmp ogt float %59, 0.000000e+00
  br i1 %60, label %61, label %68

61:                                               ; preds = %55
  %62 = load i32, i32* %3, align 4
  %63 = sext i32 %62 to i64
  %64 = getelementptr inbounds [300 x float], [300 x float]* %8, i64 0, i64 %63
  %65 = load float, float* %64, align 4
  %66 = load float, float* %9, align 4
  %67 = fcmp ogt float %65, %66
  br i1 %67, label %82, label %68

68:                                               ; preds = %61, %55
  %69 = load i32, i32* %3, align 4
  %70 = sext i32 %69 to i64
  %71 = getelementptr inbounds [300 x float], [300 x float]* %8, i64 0, i64 %70
  %72 = load float, float* %71, align 4
  %73 = fcmp olt float %72, 0.000000e+00
  br i1 %73, label %74, label %87

74:                                               ; preds = %68
  %75 = load i32, i32* %3, align 4
  %76 = sext i32 %75 to i64
  %77 = getelementptr inbounds [300 x float], [300 x float]* %8, i64 0, i64 %76
  %78 = load float, float* %77, align 4
  %79 = load float, float* %9, align 4
  %80 = fneg float %79
  %81 = fcmp olt float %78, %80
  br i1 %81, label %82, label %87

82:                                               ; preds = %74, %61
  %83 = load i32, i32* %3, align 4
  %84 = sext i32 %83 to i64
  %85 = getelementptr inbounds [300 x float], [300 x float]* %8, i64 0, i64 %84
  %86 = load float, float* %85, align 4
  store float %86, float* %9, align 4
  br label %87

87:                                               ; preds = %82, %74, %68
  br label %88

88:                                               ; preds = %87
  %89 = load i32, i32* %3, align 4
  %90 = add nsw i32 %89, 1
  store i32 %90, i32* %3, align 4
  br label %35

91:                                               ; preds = %35
  %92 = load float, float* %9, align 4
  %93 = fcmp olt float %92, 0.000000e+00
  br i1 %93, label %94, label %97

94:                                               ; preds = %91
  %95 = load float, float* %9, align 4
  %96 = fneg float %95
  store float %96, float* %9, align 4
  br label %97

97:                                               ; preds = %94, %91
  store i32 0, i32* %3, align 4
  store i32 0, i32* %6, align 4
  br label %98

98:                                               ; preds = %128, %97
  %99 = load i32, i32* %3, align 4
  %100 = load i32, i32* %2, align 4
  %101 = icmp slt i32 %99, %100
  br i1 %101, label %102, label %131

102:                                              ; preds = %98
  %103 = load i32, i32* %3, align 4
  %104 = sext i32 %103 to i64
  %105 = getelementptr inbounds [300 x float], [300 x float]* %8, i64 0, i64 %104
  %106 = load float, float* %105, align 4
  %107 = load float, float* %9, align 4
  %108 = fcmp oeq float %106, %107
  br i1 %108, label %117, label %109

109:                                              ; preds = %102
  %110 = load i32, i32* %3, align 4
  %111 = sext i32 %110 to i64
  %112 = getelementptr inbounds [300 x float], [300 x float]* %8, i64 0, i64 %111
  %113 = load float, float* %112, align 4
  %114 = load float, float* %9, align 4
  %115 = fneg float %114
  %116 = fcmp oeq float %113, %115
  br i1 %116, label %117, label %127

117:                                              ; preds = %109, %102
  %118 = load i32, i32* %3, align 4
  %119 = sext i32 %118 to i64
  %120 = getelementptr inbounds [300 x i32], [300 x i32]* %4, i64 0, i64 %119
  %121 = load i32, i32* %120, align 4
  %122 = load i32, i32* %6, align 4
  %123 = sext i32 %122 to i64
  %124 = getelementptr inbounds [300 x i32], [300 x i32]* %5, i64 0, i64 %123
  store i32 %121, i32* %124, align 4
  %125 = load i32, i32* %6, align 4
  %126 = add nsw i32 %125, 1
  store i32 %126, i32* %6, align 4
  br label %127

127:                                              ; preds = %117, %109
  br label %128

128:                                              ; preds = %127
  %129 = load i32, i32* %3, align 4
  %130 = add nsw i32 %129, 1
  store i32 %130, i32* %3, align 4
  br label %98

131:                                              ; preds = %98
  %132 = load i32, i32* %6, align 4
  %133 = sext i32 %132 to i64
  %134 = getelementptr inbounds [300 x i32], [300 x i32]* %5, i64 0, i64 %133
  store i32 97, i32* %134, align 4
  store i32 0, i32* %3, align 4
  br label %135

135:                                              ; preds = %182, %131
  %136 = load i32, i32* %3, align 4
  %137 = add nsw i32 %136, 1
  %138 = sext i32 %137 to i64
  %139 = getelementptr inbounds [300 x i32], [300 x i32]* %5, i64 0, i64 %138
  %140 = load i32, i32* %139, align 4
  %141 = icmp ne i32 %140, 97
  br i1 %141, label %142, label %185

142:                                              ; preds = %135
  %143 = load i32, i32* %3, align 4
  %144 = add nsw i32 %143, 1
  store i32 %144, i32* %6, align 4
  br label %145

145:                                              ; preds = %178, %142
  %146 = load i32, i32* %6, align 4
  %147 = sext i32 %146 to i64
  %148 = getelementptr inbounds [300 x i32], [300 x i32]* %5, i64 0, i64 %147
  %149 = load i32, i32* %148, align 4
  %150 = icmp ne i32 %149, 97
  br i1 %150, label %151, label %181

151:                                              ; preds = %145
  %152 = load i32, i32* %3, align 4
  %153 = sext i32 %152 to i64
  %154 = getelementptr inbounds [300 x i32], [300 x i32]* %5, i64 0, i64 %153
  %155 = load i32, i32* %154, align 4
  %156 = load i32, i32* %6, align 4
  %157 = sext i32 %156 to i64
  %158 = getelementptr inbounds [300 x i32], [300 x i32]* %5, i64 0, i64 %157
  %159 = load i32, i32* %158, align 4
  %160 = icmp sgt i32 %155, %159
  br i1 %160, label %161, label %177

161:                                              ; preds = %151
  %162 = load i32, i32* %3, align 4
  %163 = sext i32 %162 to i64
  %164 = getelementptr inbounds [300 x i32], [300 x i32]* %5, i64 0, i64 %163
  %165 = load i32, i32* %164, align 4
  store i32 %165, i32* %2, align 4
  %166 = load i32, i32* %6, align 4
  %167 = sext i32 %166 to i64
  %168 = getelementptr inbounds [300 x i32], [300 x i32]* %5, i64 0, i64 %167
  %169 = load i32, i32* %168, align 4
  %170 = load i32, i32* %3, align 4
  %171 = sext i32 %170 to i64
  %172 = getelementptr inbounds [300 x i32], [300 x i32]* %5, i64 0, i64 %171
  store i32 %169, i32* %172, align 4
  %173 = load i32, i32* %2, align 4
  %174 = load i32, i32* %6, align 4
  %175 = sext i32 %174 to i64
  %176 = getelementptr inbounds [300 x i32], [300 x i32]* %5, i64 0, i64 %175
  store i32 %173, i32* %176, align 4
  br label %177

177:                                              ; preds = %161, %151
  br label %178

178:                                              ; preds = %177
  %179 = load i32, i32* %6, align 4
  %180 = add nsw i32 %179, 1
  store i32 %180, i32* %6, align 4
  br label %145

181:                                              ; preds = %145
  br label %182

182:                                              ; preds = %181
  %183 = load i32, i32* %3, align 4
  %184 = add nsw i32 %183, 1
  store i32 %184, i32* %3, align 4
  br label %135

185:                                              ; preds = %135
  store i32 0, i32* %3, align 4
  br label %186

186:                                              ; preds = %199, %185
  %187 = load i32, i32* %3, align 4
  %188 = add nsw i32 %187, 1
  %189 = sext i32 %188 to i64
  %190 = getelementptr inbounds [300 x i32], [300 x i32]* %5, i64 0, i64 %189
  %191 = load i32, i32* %190, align 4
  %192 = icmp ne i32 %191, 97
  br i1 %192, label %193, label %202

193:                                              ; preds = %186
  %194 = load i32, i32* %3, align 4
  %195 = sext i32 %194 to i64
  %196 = getelementptr inbounds [300 x i32], [300 x i32]* %5, i64 0, i64 %195
  %197 = load i32, i32* %196, align 4
  %198 = call i32 (i8*, ...) @printf(i8* getelementptr inbounds ([4 x i8], [4 x i8]* @.str.2, i64 0, i64 0), i32 %197)
  br label %199

199:                                              ; preds = %193
  %200 = load i32, i32* %3, align 4
  %201 = add nsw i32 %200, 1
  store i32 %201, i32* %3, align 4
  br label %186

202:                                              ; preds = %186
  %203 = load i32, i32* %3, align 4
  %204 = sext i32 %203 to i64
  %205 = getelementptr inbounds [300 x i32], [300 x i32]* %5, i64 0, i64 %204
  %206 = load i32, i32* %205, align 4
  %207 = call i32 (i8*, ...) @printf(i8* getelementptr inbounds ([3 x i8], [3 x i8]* @.str.1, i64 0, i64 0), i32 %206)
  ret i32 0
}

declare dso_local i32 @__isoc99_scanf(i8*, ...) #1

declare dso_local i32 @printf(i8*, ...) #1


!llvm.module.flags = !{!0}
!llvm.ident = !{!1}

!0 = !{i32 1, !"wchar_size", i32 4}
!1 = !{!"clang version 10.0.0-4ubuntu1 "}
